Certificate:
    Data:
        Version: 3 (0x2)
        Serial Number:
            13:36:ac:2b:6b:78:e6:05:60:42:08:a0:ee:70:89:dc:ef:ab:1a:15
        Signature Algorithm: sha256WithRSAEncryption
        Issuer: CN = localhost
        Validity
            Not Before: May  6 11:20:12 2024 GMT
            Not After : Jun  5 11:20:12 2024 GMT
        Subject: CN = localhost
        Subject Public Key Info:
            Public Key Algorithm: rsaEncryption
                Public-Key: (2048 bit)
                Modulus:
                    00:a3:bf:fe:59:43:99:83:a3:25:ef:32:1e:62:c6:
                    ce:72:b2:f8:f9:df:84:ad:35:d3:70:c0:af:78:37:
                    62:2c:22:53:ef:d2:6a:03:54:52:91:b7:37:a9:65:
                    63:a4:33:0e:f2:f0:68:9f:42:7f:0d:b1:12:0c:98:
                    9e:05:c7:12:9f:3a:0c:f0:bc:85:3e:7e:95:14:03:
                    53:43:1e:fc:81:a9:16:bc:4e:b7:1b:14:7f:56:da:
                    15:53:e6:d2:ea:60:5d:37:91:f0:de:f6:ce:fb:79:
                    81:3a:fd:32:68:37:c2:f7:d6:38:58:ea:c5:03:00:
                    62:0b:ca:99:2f:17:05:fe:5f:bc:5d:de:7a:21:85:
                    f0:05:5f:68:b7:5c:a1:4b:18:73:28:4a:8c:a6:73:
                    75:9c:83:2e:75:56:5b:56:7a:ac:8a:97:6b:30:e1:
                    6c:82:33:f0:2a:a3:9a:5b:05:93:c6:67:4a:b1:cf:
                    b5:6b:e6:36:67:c0:e7:c4:29:e7:d8:73:2b:13:d8:
                    56:06:91:bb:94:83:35:ab:44:53:10:3d:5e:8d:d2:
                    12:3c:ca:82:d8:dd:d1:54:fd:a2:eb:62:f9:b6:9e:
                    b2:74:43:39:9e:54:60:2a:69:3f:30:3b:12:c9:33:
                    6c:17:ca:25:bc:73:dd:43:93:9b:3c:cb:ac:ac:60:
                    53:59
                Exponent: 65537 (0x10001)
        X509v3 extensions:
            X509v3 Subject Key Identifier: 
                4E:6B:72:53:38:39:55:E8:4B:15:26:8C:AD:90:7F:7F:57:DC:28:A8
            X509v3 Authority Key Identifier: 
                4E:6B:72:53:38:39:55:E8:4B:15:26:8C:AD:90:7F:7F:57:DC:28:A8
            X509v3 Basic Constraints: critical
                CA:TRUE
    Signature Algorithm: sha256WithRSAEncryption
    Signature Value:
        2c:3c:c3:95:df:d2:d4:5b:5e:64:a2:46:6b:1a:6c:2e:2d:6f:
        a3:a0:9b:cf:14:93:b1:1b:9b:e0:4e:d0:1d:ee:d5:0d:52:10:
        c2:ca:e9:0a:39:e7:48:cc:33:8e:9c:53:17:81:7f:ab:3d:cc:
        b5:42:12:58:47:26:65:3e:af:12:52:85:44:bf:02:ab:65:9e:
        80:cf:20:32:65:df:d6:70:cc:4b:45:c5:38:0c:ff:74:a0:3f:
        fa:03:c8:42:bb:93:25:3c:0b:4f:5c:22:c4:65:0e:fe:e4:a4:
        ef:2c:84:99:01:f5:d0:93:15:93:be:88:da:ef:f4:c2:80:88:
        d2:92:60:09:88:0f:23:4d:db:50:1e:20:a7:67:e8:11:bc:02:
        94:07:d8:75:1d:e0:fe:74:dc:16:c9:f2:41:8b:a2:98:26:c7:
        b4:53:7d:f7:9d:3f:a3:ee:d4:94:eb:2b:ff:8e:16:0e:0b:6c:
        3b:c5:78:ae:3e:46:8c:a2:ea:5a:3e:98:2b:ea:03:e1:cd:1d:
        10:d5:67:9f:44:e0:fa:71:7a:06:2c:a7:1a:bc:90:37:36:9e:
        64:96:63:14:5c:1f:04:71:6e:d1:e9:7d:12:9c:d5:e3:e8:75:
        85:00:07:9d:f3:14:ab:3f:ea:a4:a5:82:51:29:95:4c:ae:da:
        20:6a:9c:ba
-----BEGIN CERTIFICATE-----
MIIDCTCCAfGgAwIBAgIUEzasK2t45gVgQgig7nCJ3O+rGhUwDQYJKoZIhvcNAQEL
BQAwFDESMBAGA1UEAwwJbG9jYWxob3N0MB4XDTI0MDUwNjExMjAxMloXDTI0MDYw
NTExMjAxMlowFDESMBAGA1UEAwwJbG9jYWxob3N0MIIBIjANBgkqhkiG9w0BAQEF
AAOCAQ8AMIIBCgKCAQEAo7/+WUOZg6Ml7zIeYsbOcrL4+d+ErTXTcMCveDdiLCJT
79JqA1RSkbc3qWVjpDMO8vBon0J/DbESDJieBccSnzoM8LyFPn6VFANTQx78gakW
vE63GxR/VtoVU+bS6mBdN5Hw3vbO+3mBOv0yaDfC99Y4WOrFAwBiC8qZLxcF/l+8
Xd56IYXwBV9ot1yhSxhzKEqMpnN1nIMudVZbVnqsipdrMOFsgjPwKqOaWwWTxmdK
sc+1a+Y2Z8DnxCnn2HMrE9hWBpG7lIM1q0RTED1ejdISPMqC2N3RVP2i62L5tp6y
dEM5nlRgKmk/MDsSyTNsF8olvHPdQ5ObPMusrGBTWQIDAQABo1MwUTAdBgNVHQ4E
FgQUTmtyUzg5VehLFSaMrZB/f1fcKKgwHwYDVR0jBBgwFoAUTmtyUzg5VehLFSaM
rZB/f1fcKKgwDwYDVR0TAQH/BAUwAwEB/zANBgkqhkiG9w0BAQsFAAOCAQEALDzD
ld/S1FteZKJGaxpsLi1vo6CbzxSTsRub4E7QHe7VDVIQwsrpCjnnSMwzjpxTF4F/
qz3MtUISWEcmZT6vElKFRL8Cq2WegM8gMmXf1nDMS0XFOAz/dKA/+gPIQruTJTwL
T1wixGUO/uSk7yyEmQH10JMVk76I2u/0woCI0pJgCYgPI03bUB4gp2foEbwClAfY
dR3g/nTcFsnyQYuimCbHtFN9950/o+7UlOsr/44WDgtsO8V4rj5GjKLqWj6YK+oD
4c0dENVnn0Tg+nF6BiynGryQNzaeZJZjFFwfBHFu0el9EpzV4+h1hQAHnfMUqz/q
pKWCUSmVTK7aIGqcug==
-----END CERTIFICATE-----
